; Function Attrs: nounwind uwtable
define zeroext i8 @l_Std_Sat_AIG_denote___at_Std_Sat_AIG_toCNF_cnfSatAssignment___spec__1(ptr noundef %0, ptr noundef readonly captures(none) %1) local_unnamed_addr #0 {
  %3 = getelementptr inbounds nuw i8, ptr %1, i64 8
  %4 = getelementptr inbounds nuw i8, ptr %1, i64 16
  %5 = load ptr, ptr %4, align 8, !tbaa !9
  %6 = getelementptr inbounds nuw i8, ptr %5, i64 8
  %7 = load ptr, ptr %6, align 8, !tbaa !9
  %8 = load ptr, ptr %3, align 8, !tbaa !9
  %9 = getelementptr inbounds nuw i8, ptr %8, i64 8
  %10 = load ptr, ptr %9, align 8, !tbaa !9
  %11 = tail call ptr @l_Std_Sat_AIG_denote_go___rarg(ptr noundef %7, ptr noundef %10, ptr noundef %0, ptr noundef nonnull inttoptr (i64 1 to ptr), ptr noundef nonnull inttoptr (i64 1 to ptr)) #3
  %12 = ptrtoint ptr %11 to i64
  %13 = and i64 %12, 1
  %.not = icmp eq i64 %13, 0
  br i1 %.not, label %14, label %lean_dec.exit

14:                                               ; preds = %2
  %15 = load i32, ptr %11, align 4, !tbaa !4
  %16 = icmp sgt i32 %15, 1
  br i1 %16, label %17, label %19, !prof !13

17:                                               ; preds = %14
  %18 = add nsw i32 %15, -1
  store i32 %18, ptr %11, align 4, !tbaa !4
  br label %lean_dec.exit

19:                                               ; preds = %14
  %.not.i = icmp eq i32 %15, 0
  br i1 %.not.i, label %lean_dec.exit, label %20

20:                                               ; preds = %19
  tail call void @lean_dec_ref_cold(ptr noundef nonnull %11) #3
  br label %lean_dec.exit

lean_dec.exit:                                    ; preds = %20, %19, %17, %2
  %21 = and i64 %12, 510
  %22 = icmp eq i64 %21, 0
  %23 = getelementptr i8, ptr %5, i64 16
  %.val = load i8, ptr %23, align 1, !tbaa !14
  %24 = icmp eq i8 %.val, 0
  %. = zext i1 %24 to i8
  %.0 = select i1 %22, i8 %.val, i8 %.
  ret i8 %.0
}